Certificate:
    Data:
        Version: 3 (0x2)
        Serial Number: 1 (0x1)
        Signature Algorithm: sha256WithRSAEncryption
        Issuer: C=ES, ST=Granada, L=Granada, O=Overkill, OU=Overkill, CN=Overkill/emailAddress=mcristianvr@gmail.com
        Validity
            Not Before: May 14 17:13:51 2022 GMT
            Not After : Feb  7 17:13:51 2025 GMT
        Subject: C=ES, ST=GR, L=Granada, O=Overkill, CN=Overkill
        Subject Public Key Info:
            Public Key Algorithm: rsaEncryption
                RSA Public-Key: (2048 bit)
                Modulus:
                    00:b7:f0:87:b6:91:01:fb:5e:0d:8d:12:6b:29:88:
                    a2:a1:18:14:46:e7:8e:b2:98:39:8a:99:c0:5e:20:
                    1f:d6:0b:00:dd:b4:50:2e:d7:2f:bb:a3:f9:4a:aa:
                    99:15:08:18:3a:1c:f7:2c:a0:1a:7a:15:1e:ea:80:
                    4e:6f:98:3b:53:87:33:f1:91:12:64:99:f0:9d:ff:
                    f4:27:be:3c:4c:8c:b5:96:0d:9b:f5:3c:c6:06:d2:
                    f9:8a:42:8d:1e:6f:a7:d6:2f:ec:99:16:13:dd:68:
                    54:b3:28:95:d5:2e:b5:98:70:40:b3:88:41:04:0f:
                    2f:2b:58:07:81:84:81:7f:ff:32:94:75:d2:43:83:
                    de:7d:0b:cd:7a:94:45:01:93:15:b0:c9:88:d7:30:
                    d3:82:0e:6c:31:5b:65:9f:7f:89:9b:ea:a0:38:ec:
                    db:50:1d:9c:e6:37:96:19:09:d9:f6:9a:6d:4b:0e:
                    5c:4e:8c:6a:2e:eb:ee:52:40:62:3e:89:29:52:a6:
                    b2:6f:77:74:ee:57:b6:5e:a9:17:f6:73:49:91:9a:
                    a7:d1:67:c9:bd:5d:be:d7:58:f2:de:fb:da:37:30:
                    d2:be:7a:0a:33:88:be:df:c0:f6:d4:cd:8a:dc:97:
                    9f:7a:b5:44:2c:ca:c3:bf:7c:8e:6d:36:77:b2:bd:
                    fe:2f
                Exponent: 65537 (0x10001)
        X509v3 extensions:
            X509v3 Subject Key Identifier: 
                00:9E:CC:6E:65:95:9B:B8:A2:D7:DB:5F:B6:6E:35:1C:13:D2:6E:37
            X509v3 Authority Key Identifier: 
                keyid:9A:86:C0:C4:1E:0A:B9:ED:B2:8E:AE:49:F4:99:FF:64:BB:C3:B9:D5

            X509v3 Basic Constraints: 
                CA:FALSE
            X509v3 Key Usage: 
                Digital Signature, Key Encipherment
            X509v3 Subject Alternative Name: 
                DNS:localhost, DNS:Overkill, IP Address:127.0.0.1, IP Address:0:0:0:0:0:0:0:1
            Netscape Comment: 
                OpenSSL Generated Certificate
    Signature Algorithm: sha256WithRSAEncryption
         25:b4:51:25:89:b3:9b:50:1e:b2:1a:84:93:e3:12:08:63:4d:
         56:f1:99:6c:ac:f1:23:7f:66:ce:40:65:5c:15:3e:91:aa:b9:
         49:94:96:76:29:0d:88:f6:a7:ee:0c:99:49:11:44:47:97:8a:
         df:31:9f:fe:60:ff:b0:ae:03:a2:ae:fe:46:43:8e:1f:6a:6a:
         dd:ab:89:17:dc:cf:80:6b:86:7f:a1:4b:41:03:35:cd:a5:6a:
         b2:e0:2a:2e:38:95:54:55:a9:96:1f:dd:7e:8f:c0:3c:9e:5a:
         07:68:c5:27:97:7f:8e:82:7f:33:78:37:89:b9:67:1d:c1:52:
         7a:84:4b:4c:bf:93:e5:f6:d0:ae:99:67:32:1f:31:d4:25:70:
         92:56:9e:e5:ab:a1:7d:dd:f8:4d:73:cb:1c:82:ef:5f:cf:ca:
         7d:41:14:a4:5d:f4:e4:03:a3:51:05:e3:84:50:30:b1:6e:88:
         dd:76:30:d3:ea:19:c5:d1:61:0a:39:71:4e:19:c0:a3:fa:87:
         df:67:07:7d:13:34:d5:71:56:7b:32:ab:a0:ae:87:bd:ce:8c:
         77:37:9e:39:95:76:46:d5:cd:89:4b:89:95:71:72:9e:c0:27:
         55:fd:28:1f:b5:30:df:55:36:b4:63:d6:cd:08:67:85:6a:49:
         2c:93:0a:c8:24:61:19:b4:5d:d5:1f:01:9c:38:a5:15:98:08:
         de:e2:74:a6:65:c7:53:a7:2e:34:cc:0b:8d:8b:d1:fc:18:e4:
         64:34:4f:65:bc:c5:7a:50:4f:46:14:2e:4e:0d:3f:4e:f5:5b:
         f1:36:4b:f3:b4:e2:47:02:9f:5d:4f:94:fb:21:8a:54:2f:0c:
         49:38:c2:bc:8c:6b:25:a5:65:97:5b:ec:77:3d:fa:ad:50:e5:
         fd:5a:e3:a7:e2:ad:87:0d:c7:0e:10:57:b5:30:63:ef:19:54:
         eb:87:b0:28:64:70:1a:61:d1:40:b8:9c:bf:a2:d1:18:f9:1e:
         4c:de:9b:68:69:a8:9b:1b:45:43:61:50:52:a5:77:b6:80:ca:
         b5:be:8b:ef:1f:ae:0f:42:11:fe:81:7f:30:c3:02:63:49:9b:
         30:0a:e5:f8:38:dc:03:9a:10:26:a2:aa:ac:21:18:79:c6:0b:
         c1:ef:db:94:5d:d5:59:c0:34:3e:3e:a0:94:f4:46:48:34:9b:
         48:97:39:50:ed:82:be:2a:54:e1:50:cd:e6:a7:f6:ed:94:94:
         09:74:52:b3:93:1f:cd:60:08:47:48:8a:65:02:81:a5:2d:98:
         36:6d:b9:43:b0:ad:ec:50:fb:c5:84:23:89:b7:e6:db:bc:cb:
         36:0f:ec:55:dc:52:55:1f
-----BEGIN CERTIFICATE-----
MIIFIDCCAwigAwIBAgIBATANBgkqhkiG9w0BAQsFADCBkDELMAkGA1UEBhMCRVMx
EDAOBgNVBAgMB0dyYW5hZGExEDAOBgNVBAcMB0dyYW5hZGExETAPBgNVBAoMCE92
ZXJraWxsMREwDwYDVQQLDAhPdmVya2lsbDERMA8GA1UEAwwIT3ZlcmtpbGwxJDAi
BgkqhkiG9w0BCQEWFW1jcmlzdGlhbnZyQGdtYWlsLmNvbTAeFw0yMjA1MTQxNzEz
NTFaFw0yNTAyMDcxNzEzNTFaMFIxCzAJBgNVBAYTAkVTMQswCQYDVQQIDAJHUjEQ
MA4GA1UEBwwHR3JhbmFkYTERMA8GA1UECgwIT3ZlcmtpbGwxETAPBgNVBAMMCE92
ZXJraWxsMIIBIjANBgkqhkiG9w0BAQEFAAOCAQ8AMIIBCgKCAQEAt/CHtpEB+14N
jRJrKYiioRgURueOspg5ipnAXiAf1gsA3bRQLtcvu6P5SqqZFQgYOhz3LKAaehUe
6oBOb5g7U4cz8ZESZJnwnf/0J748TIy1lg2b9TzGBtL5ikKNHm+n1i/smRYT3WhU
syiV1S61mHBAs4hBBA8vK1gHgYSBf/8ylHXSQ4PefQvNepRFAZMVsMmI1zDTgg5s
MVtln3+Jm+qgOOzbUB2c5jeWGQnZ9pptSw5cToxqLuvuUkBiPokpUqayb3d07le2
XqkX9nNJkZqn0WfJvV2+11jy3vvaNzDSvnoKM4i+38D21M2K3JeferVELMrDv3yO
bTZ3sr3+LwIDAQABo4HBMIG+MB0GA1UdDgQWBBQAnsxuZZWbuKLX21+2bjUcE9Ju
NzAfBgNVHSMEGDAWgBSahsDEHgq57bKOrkn0mf9ku8O51TAJBgNVHRMEAjAAMAsG
A1UdDwQEAwIFoDA2BgNVHREELzAtgglsb2NhbGhvc3SCCE92ZXJraWxshwR/AAAB
hxAAAAAAAAAAAAAAAAAAAAABMCwGCWCGSAGG+EIBDQQfFh1PcGVuU1NMIEdlbmVy
YXRlZCBDZXJ0aWZpY2F0ZTANBgkqhkiG9w0BAQsFAAOCAgEAJbRRJYmzm1AeshqE
k+MSCGNNVvGZbKzxI39mzkBlXBU+kaq5SZSWdikNiPan7gyZSRFER5eK3zGf/mD/
sK4Doq7+RkOOH2pq3auJF9zPgGuGf6FLQQM1zaVqsuAqLjiVVFWplh/dfo/APJ5a
B2jFJ5d/joJ/M3g3iblnHcFSeoRLTL+T5fbQrplnMh8x1CVwklae5auhfd34TXPL
HILvX8/KfUEUpF305AOjUQXjhFAwsW6I3XYw0+oZxdFhCjlxThnAo/qH32cHfRM0
1XFWezKroK6Hvc6MdzeeOZV2RtXNiUuJlXFynsAnVf0oH7Uw31U2tGPWzQhnhWpJ
LJMKyCRhGbRd1R8BnDilFZgI3uJ0pmXHU6cuNMwLjYvR/BjkZDRPZbzFelBPRhQu
Tg0/TvVb8TZL87TiRwKfXU+U+yGKVC8MSTjCvIxrJaVll1vsdz36rVDl/Vrjp+Kt
hw3HDhBXtTBj7xlU64ewKGRwGmHRQLicv6LRGPkeTN6baGmomxtFQ2FQUqV3toDK
tb6L7x+uD0IR/oF/MMMCY0mbMArl+DjcA5oQJqKqrCEYecYLwe/blF3VWcA0Pj6g
lPRGSDSbSJc5UO2CvipU4VDN5qf27ZSUCXRSs5MfzWAIR0iKZQKBpS2YNm25Q7Ct
7FD7xYQjibfm27zLNg/sVdxSVR8=
-----END CERTIFICATE-----
