Certificate:
    Data:
        Version: 3 (0x2)
        Serial Number: 2 (0x2)
        Signature Algorithm: sha256WithRSAEncryption
        Issuer: C=ES, ST=Granada, L=Granada, O= Overkill Hotel, OU=Departamento, CN=Test CA/emailAddress=mCristianVr@gmail.com
        Validity
            Not Before: Jun 15 17:40:40 2022 GMT
            Not After : Mar 11 17:40:40 2025 GMT
        Subject: C=ES, ST=Granada, L=Granada, O=Overkill Hotel, CN=OverkillWeb
        Subject Public Key Info:
            Public Key Algorithm: rsaEncryption
                RSA Public-Key: (2048 bit)
                Modulus:
                    00:b8:e6:56:d4:f4:db:76:5d:ed:e4:2b:d4:9d:fa:
                    89:1f:1a:ba:eb:bc:3f:8c:18:24:03:ec:c2:e6:7e:
                    f5:88:2f:eb:17:d7:55:07:7b:60:66:99:76:87:18:
                    44:59:8f:bc:90:bf:6d:64:a1:7d:88:9d:f9:d2:22:
                    10:9b:36:4f:9e:d1:67:2d:13:7c:8e:9c:28:12:12:
                    3b:c3:0b:12:7d:73:ec:d6:a0:4b:27:ea:4f:dd:0c:
                    5b:dd:9b:78:89:f1:9f:14:76:65:91:59:49:e5:1a:
                    ed:1f:51:63:ee:1c:32:c1:fd:fb:bc:87:ae:15:5c:
                    e6:20:2d:e1:85:4c:c1:81:d9:fe:1c:21:26:c3:79:
                    bc:c6:69:e6:cb:86:50:10:12:ad:de:ec:15:58:3a:
                    d4:4c:00:66:ac:43:c9:4c:56:f6:08:bd:9b:3c:23:
                    1a:5e:10:bf:5f:48:0a:8f:aa:29:bc:5b:24:15:6f:
                    67:0a:8c:dc:68:ea:46:7e:52:c9:45:30:7d:1d:14:
                    64:83:92:41:df:63:71:1d:9c:29:7b:d5:ad:cd:fd:
                    78:d8:ce:bb:39:1a:3f:75:72:a3:c7:8d:73:4f:a4:
                    94:06:b3:23:35:02:11:63:0f:7e:e2:c0:35:aa:86:
                    35:dd:5f:b6:b1:ff:3c:e2:9e:c3:06:54:d9:83:2a:
                    73:79
                Exponent: 65537 (0x10001)
        X509v3 extensions:
            X509v3 Subject Key Identifier: 
                04:FC:E3:FE:4C:E7:65:65:CF:2C:A0:2E:68:9A:53:0D:D2:DC:CF:05
            X509v3 Authority Key Identifier: 
                keyid:FC:D9:84:62:36:C1:9C:F2:FD:AC:3D:CF:09:DF:4F:B3:FE:D8:E2:74

            X509v3 Basic Constraints: 
                CA:FALSE
            X509v3 Key Usage: 
                Digital Signature, Key Encipherment
            X509v3 Subject Alternative Name: 
                DNS:localhost, IP Address:127.0.0.1, IP Address:0.0.0.0
            Netscape Comment: 
                OpenSSL Generated Certificate
    Signature Algorithm: sha256WithRSAEncryption
         36:a2:57:12:dd:8e:47:d0:d1:3e:a2:e4:75:91:72:ca:ae:ac:
         67:ab:40:b5:53:c0:b8:fd:d7:b9:74:5f:b6:0a:b8:f8:bc:9b:
         96:33:3f:f9:3c:d7:3f:c6:7e:5b:bd:aa:65:67:78:c3:68:58:
         0d:45:e3:a3:c7:aa:13:7d:2e:d2:86:cb:03:2f:4c:3d:b2:19:
         27:bc:54:0d:22:e7:0a:52:1f:3b:9e:73:d2:0d:35:e5:fb:13:
         84:e0:67:16:85:9b:09:6b:fd:3d:9e:b7:ce:e8:d1:be:80:a0:
         ce:bf:13:fc:2e:1d:cc:4a:f2:ea:a0:01:d1:85:36:7f:65:ee:
         f7:7c:ff:04:95:44:7c:ab:8f:77:88:e6:ed:53:a1:34:95:51:
         28:1c:93:49:ce:59:03:9d:d0:19:21:47:aa:6b:b8:af:c3:d1:
         99:9c:3c:83:26:88:79:71:b6:b3:d2:47:2e:83:08:c6:b9:b3:
         77:12:d1:fb:f2:bb:22:25:87:1c:22:0c:e4:a4:c7:c1:9b:9c:
         e9:74:5b:79:50:38:70:10:29:8d:c0:87:e3:52:d4:0b:fb:43:
         42:13:0f:58:47:d8:15:01:ac:79:f8:17:40:1e:24:d2:83:5a:
         cc:f8:46:3b:16:0e:f1:78:50:b6:3d:53:62:66:50:8d:f7:74:
         f8:ea:a4:c8:cb:8b:74:e1:75:d1:6c:c2:a0:ab:06:ad:83:8b:
         a3:77:a5:31:cc:59:5c:d8:30:35:08:6a:48:9a:1c:68:aa:53:
         1e:19:26:49:3c:89:96:c5:57:c0:a1:09:57:a8:02:f7:1b:bf:
         4c:03:6e:2f:6e:c9:43:1b:11:7b:5f:ac:5b:d0:60:3a:4e:0d:
         e8:61:0c:67:94:78:92:b8:fe:40:1a:74:bb:d6:6f:c3:6c:a8:
         ca:40:f4:fc:58:78:74:29:e7:8b:0e:6a:71:ef:45:a0:fe:62:
         87:7b:04:be:19:af:ec:b0:7f:ff:cc:2f:0e:9d:19:71:71:c5:
         f2:4d:c5:39:4e:33:9a:d7:96:b9:7d:9b:a1:ba:ef:46:5f:12:
         a2:06:b6:cd:7e:c8:f6:82:09:47:a2:89:7b:06:65:28:ac:80:
         05:08:ec:c1:a7:7c:ef:fa:bb:29:f1:d6:59:3e:e9:eb:6f:9f:
         82:45:ac:66:34:69:71:56:a9:b3:8c:db:57:83:72:9f:85:a1:
         04:6c:51:26:53:a3:96:2e:c0:2e:98:f2:fd:2a:75:37:2d:10:
         6c:ed:27:0e:ea:e3:38:cf:79:1d:ef:76:af:2e:b4:18:ff:6c:
         a2:98:75:a5:f0:9a:88:50:61:25:4d:11:97:10:f9:6c:55:25:
         e8:1e:de:f0:d7:4e:c3:07
-----BEGIN CERTIFICATE-----
MIIFIjCCAwqgAwIBAgIBAjANBgkqhkiG9w0BAQsFADCBmjELMAkGA1UEBhMCRVMx
EDAOBgNVBAgMB0dyYW5hZGExEDAOBgNVBAcMB0dyYW5hZGExGDAWBgNVBAoMDyBP
dmVya2lsbCBIb3RlbDEVMBMGA1UECwwMRGVwYXJ0YW1lbnRvMRAwDgYDVQQDDAdU
ZXN0IENBMSQwIgYJKoZIhvcNAQkBFhVtQ3Jpc3RpYW5WckBnbWFpbC5jb20wHhcN
MjIwNjE1MTc0MDQwWhcNMjUwMzExMTc0MDQwWjBgMQswCQYDVQQGEwJFUzEQMA4G
A1UECAwHR3JhbmFkYTEQMA4GA1UEBwwHR3JhbmFkYTEXMBUGA1UECgwOT3Zlcmtp
bGwgSG90ZWwxFDASBgNVBAMMC092ZXJraWxsV2ViMIIBIjANBgkqhkiG9w0BAQEF
AAOCAQ8AMIIBCgKCAQEAuOZW1PTbdl3t5CvUnfqJHxq667w/jBgkA+zC5n71iC/r
F9dVB3tgZpl2hxhEWY+8kL9tZKF9iJ350iIQmzZPntFnLRN8jpwoEhI7wwsSfXPs
1qBLJ+pP3Qxb3Zt4ifGfFHZlkVlJ5RrtH1Fj7hwywf37vIeuFVzmIC3hhUzBgdn+
HCEmw3m8xmnmy4ZQEBKt3uwVWDrUTABmrEPJTFb2CL2bPCMaXhC/X0gKj6opvFsk
FW9nCozcaOpGflLJRTB9HRRkg5JB32NxHZwpe9Wtzf142M67ORo/dXKjx41zT6SU
BrMjNQIRYw9+4sA1qoY13V+2sf884p7DBlTZgypzeQIDAQABo4GrMIGoMB0GA1Ud
DgQWBBQE/OP+TOdlZc8soC5omlMN0tzPBTAfBgNVHSMEGDAWgBT82YRiNsGc8v2s
Pc8J30+z/tjidDAJBgNVHRMEAjAAMAsGA1UdDwQEAwIFoDAgBgNVHREEGTAXggls
b2NhbGhvc3SHBH8AAAGHBAAAAAAwLAYJYIZIAYb4QgENBB8WHU9wZW5TU0wgR2Vu
ZXJhdGVkIENlcnRpZmljYXRlMA0GCSqGSIb3DQEBCwUAA4ICAQA2olcS3Y5H0NE+
ouR1kXLKrqxnq0C1U8C4/de5dF+2Crj4vJuWMz/5PNc/xn5bvaplZ3jDaFgNReOj
x6oTfS7ShssDL0w9shknvFQNIucKUh87nnPSDTXl+xOE4GcWhZsJa/09nrfO6NG+
gKDOvxP8Lh3MSvLqoAHRhTZ/Ze73fP8ElUR8q493iObtU6E0lVEoHJNJzlkDndAZ
IUeqa7ivw9GZnDyDJoh5cbaz0kcugwjGubN3EtH78rsiJYccIgzkpMfBm5zpdFt5
UDhwECmNwIfjUtQL+0NCEw9YR9gVAax5+BdAHiTSg1rM+EY7Fg7xeFC2PVNiZlCN
93T46qTIy4t04XXRbMKgqwatg4ujd6UxzFlc2DA1CGpImhxoqlMeGSZJPImWxVfA
oQlXqAL3G79MA24vbslDGxF7X6xb0GA6Tg3oYQxnlHiSuP5AGnS71m/DbKjKQPT8
WHh0KeeLDmpx70Wg/mKHewS+Ga/ssH//zC8OnRlxccXyTcU5TjOa15a5fZuhuu9G
XxKiBrbNfsj2gglHool7BmUorIAFCOzBp3zv+rsp8dZZPunrb5+CRaxmNGlxVqmz
jNtXg3KfhaEEbFEmU6OWLsAumPL9KnU3LRBs7ScO6uM4z3kd73avLrQY/2yimHWl
8JqIUGElTRGXEPlsVSXoHt7w107DBw==
-----END CERTIFICATE-----
