Certificate:
    Data:
        Version: 3 (0x2)
        Serial Number: 3 (0x3)
        Signature Algorithm: sha256WithRSAEncryption
        Issuer: C=ES, ST=Granada, L=Granada, O= Overkill Hotel, OU=Departamento, CN=Test CA/emailAddress=mCristianVr@gmail.com
        Validity
            Not Before: Jun 15 17:44:07 2022 GMT
            Not After : Mar 11 17:44:07 2025 GMT
        Subject: C=ES, ST=Granada, L=Granada, O=OverkillWeb, CN=Test Server
        Subject Public Key Info:
            Public Key Algorithm: rsaEncryption
                RSA Public-Key: (2048 bit)
                Modulus:
                    00:ef:88:2f:a2:3c:5d:89:09:cc:ec:b8:02:2f:74:
                    cb:e9:74:58:23:e2:eb:c7:76:9a:11:56:df:11:48:
                    90:ab:6d:61:f7:21:ec:a9:87:ef:24:03:14:6b:4a:
                    fd:5f:c4:a9:d1:a7:22:bb:ae:04:0d:4f:f7:80:00:
                    14:18:4e:77:bf:78:10:76:e7:db:f6:b9:b1:e7:0d:
                    b1:25:1c:76:7d:61:32:c8:74:fa:cd:6d:7a:14:b4:
                    79:8e:f2:38:73:02:26:a9:c1:01:b3:0b:d4:70:a7:
                    12:14:e3:e7:af:0b:9f:82:be:a1:38:15:86:6d:3b:
                    8a:7f:b2:bb:1e:5b:76:ef:f7:c9:73:47:ad:7a:f6:
                    d3:d9:9f:f3:72:6f:16:dc:be:1f:02:07:7c:1f:86:
                    f3:a6:fa:02:ae:25:ad:d4:97:60:bb:91:0c:46:cb:
                    8a:4b:f4:65:45:7f:f6:a3:c1:e2:d0:8f:d2:3b:59:
                    8e:8b:54:3d:7c:dc:59:31:6c:71:68:b6:a9:9d:3a:
                    ce:26:a7:a0:0e:37:52:bf:c5:d7:07:87:5e:87:76:
                    03:07:22:b5:56:41:b0:9a:7e:40:04:ba:03:a2:7b:
                    91:87:ac:2d:31:43:8a:3a:50:2e:1e:bd:0b:fd:83:
                    08:85:8a:ab:25:d5:2c:f2:a7:43:c6:a6:ec:2f:c6:
                    08:a1
                Exponent: 65537 (0x10001)
        X509v3 extensions:
            X509v3 Subject Key Identifier: 
                45:C3:0F:D6:9E:9F:B7:F1:23:2A:D7:1F:7D:A9:12:9A:EA:33:63:70
            X509v3 Authority Key Identifier: 
                keyid:FC:D9:84:62:36:C1:9C:F2:FD:AC:3D:CF:09:DF:4F:B3:FE:D8:E2:74

            X509v3 Basic Constraints: 
                CA:FALSE
            X509v3 Key Usage: 
                Digital Signature, Key Encipherment
            X509v3 Subject Alternative Name: 
                DNS:localhost, IP Address:127.0.0.1, IP Address:0.0.0.0, IP Address:10.11.1.30
            Netscape Comment: 
                OpenSSL Generated Certificate
    Signature Algorithm: sha256WithRSAEncryption
         0d:f3:a8:ce:e3:9a:1b:3c:b9:d3:b1:06:9e:c5:9b:01:67:98:
         ff:6a:1f:cf:fe:b3:52:23:68:0b:fd:5f:1f:34:6d:fe:1e:18:
         d1:28:5d:f2:43:61:75:62:ef:06:af:fc:33:46:b4:cc:d5:9e:
         f1:95:72:bd:69:35:32:5c:9f:51:57:bb:39:ce:30:bb:ef:3d:
         3f:bf:3c:36:01:8f:c0:63:47:d8:40:5b:94:f7:71:72:4b:f7:
         e1:d3:3e:fd:c6:2e:fe:f4:f8:5e:aa:62:6a:6f:f3:fb:15:3a:
         68:ea:1e:88:78:4f:5b:c0:c3:82:74:05:7d:c1:dd:9b:33:49:
         3c:c6:ed:7f:c3:08:40:24:3c:72:43:4a:c3:7c:31:63:c7:99:
         24:b2:5c:6d:19:54:2d:08:d5:f4:5c:e5:2a:e9:f8:a3:70:cf:
         21:bf:13:80:da:ff:a7:09:50:3a:e8:85:d8:0a:c3:94:7f:25:
         d6:c6:ff:56:29:c5:ba:54:4a:7e:54:b5:5d:df:76:a2:a9:41:
         a3:d8:f6:0e:e9:0f:5c:61:b4:f8:4e:ca:b6:e9:a1:58:0a:ce:
         e8:5d:d4:7c:96:86:9a:d7:d9:e3:89:c8:24:69:df:9f:a5:ff:
         85:94:21:a8:ea:5c:aa:bb:67:a5:62:8e:45:df:88:8b:f7:51:
         24:1c:db:e8:56:21:0c:b0:86:17:fc:0a:5b:56:55:f4:0e:77:
         f1:79:eb:4d:13:8b:4b:ad:ae:dd:ee:a2:a7:b7:e3:9a:c7:1c:
         3b:69:bc:e1:11:e5:f6:db:0f:90:11:28:4f:58:02:0d:62:f2:
         f1:5e:39:04:4b:6d:a5:fa:48:ed:a4:7b:f5:0a:b0:c0:82:f7:
         0a:fa:d0:93:a4:a9:bd:01:55:0c:e7:4c:09:5a:12:09:51:ca:
         70:a2:a5:91:1a:24:9a:c5:17:2d:92:35:b8:25:ae:ee:87:8e:
         54:35:91:89:57:21:92:40:9f:fc:1b:8e:4f:fc:47:ef:29:26:
         c8:1e:64:c7:e2:64:5f:4b:e3:3a:6b:22:0a:bb:67:2e:d0:3b:
         33:8b:9e:a0:06:80:25:74:21:b7:34:4d:ce:b1:aa:d3:27:f4:
         ed:1a:9d:63:46:42:ba:9c:f1:65:7e:fc:9d:84:ad:04:e4:7b:
         51:e3:1b:8a:61:52:56:9c:af:77:a0:15:81:e1:56:05:a0:88:
         73:e8:cc:12:ab:dd:03:b2:30:30:9d:6d:fe:77:8e:49:e5:03:
         9e:27:c7:9c:07:59:b3:0d:4b:4c:63:48:70:27:59:50:86:45:
         86:63:82:3e:c8:dc:50:3e:12:77:46:5a:74:49:6d:c5:6b:b0:
         b1:69:a7:fa:c1:bc:8c:c5
-----BEGIN CERTIFICATE-----
MIIFJTCCAw2gAwIBAgIBAzANBgkqhkiG9w0BAQsFADCBmjELMAkGA1UEBhMCRVMx
EDAOBgNVBAgMB0dyYW5hZGExEDAOBgNVBAcMB0dyYW5hZGExGDAWBgNVBAoMDyBP
dmVya2lsbCBIb3RlbDEVMBMGA1UECwwMRGVwYXJ0YW1lbnRvMRAwDgYDVQQDDAdU
ZXN0IENBMSQwIgYJKoZIhvcNAQkBFhVtQ3Jpc3RpYW5WckBnbWFpbC5jb20wHhcN
MjIwNjE1MTc0NDA3WhcNMjUwMzExMTc0NDA3WjBdMQswCQYDVQQGEwJFUzEQMA4G
A1UECAwHR3JhbmFkYTEQMA4GA1UEBwwHR3JhbmFkYTEUMBIGA1UECgwLT3Zlcmtp
bGxXZWIxFDASBgNVBAMMC1Rlc3QgU2VydmVyMIIBIjANBgkqhkiG9w0BAQEFAAOC
AQ8AMIIBCgKCAQEA74gvojxdiQnM7LgCL3TL6XRYI+Lrx3aaEVbfEUiQq21h9yHs
qYfvJAMUa0r9X8Sp0aciu64EDU/3gAAUGE53v3gQdufb9rmx5w2xJRx2fWEyyHT6
zW16FLR5jvI4cwImqcEBswvUcKcSFOPnrwufgr6hOBWGbTuKf7K7Hlt27/fJc0et
evbT2Z/zcm8W3L4fAgd8H4bzpvoCriWt1Jdgu5EMRsuKS/RlRX/2o8Hi0I/SO1mO
i1Q9fNxZMWxxaLapnTrOJqegDjdSv8XXB4deh3YDByK1VkGwmn5ABLoDonuRh6wt
MUOKOlAuHr0L/YMIhYqrJdUs8qdDxqbsL8YIoQIDAQABo4GxMIGuMB0GA1UdDgQW
BBRFww/Wnp+38SMq1x99qRKa6jNjcDAfBgNVHSMEGDAWgBT82YRiNsGc8v2sPc8J
30+z/tjidDAJBgNVHRMEAjAAMAsGA1UdDwQEAwIFoDAmBgNVHREEHzAdgglsb2Nh
bGhvc3SHBH8AAAGHBAAAAACHBAoLAR4wLAYJYIZIAYb4QgENBB8WHU9wZW5TU0wg
R2VuZXJhdGVkIENlcnRpZmljYXRlMA0GCSqGSIb3DQEBCwUAA4ICAQAN86jO45ob
PLnTsQaexZsBZ5j/ah/P/rNSI2gL/V8fNG3+HhjRKF3yQ2F1Yu8Gr/wzRrTM1Z7x
lXK9aTUyXJ9RV7s5zjC77z0/vzw2AY/AY0fYQFuU93FyS/fh0z79xi7+9PheqmJq
b/P7FTpo6h6IeE9bwMOCdAV9wd2bM0k8xu1/wwhAJDxyQ0rDfDFjx5kkslxtGVQt
CNX0XOUq6fijcM8hvxOA2v+nCVA66IXYCsOUfyXWxv9WKcW6VEp+VLVd33aiqUGj
2PYO6Q9cYbT4Tsq26aFYCs7oXdR8loaa19njicgkad+fpf+FlCGo6lyqu2elYo5F
34iL91EkHNvoViEMsIYX/ApbVlX0DnfxeetNE4tLra7d7qKnt+Oaxxw7abzhEeX2
2w+QEShPWAINYvLxXjkES22l+kjtpHv1CrDAgvcK+tCTpKm9AVUM50wJWhIJUcpw
oqWRGiSaxRctkjW4Ja7uh45UNZGJVyGSQJ/8G45P/EfvKSbIHmTH4mRfS+M6ayIK
u2cu0Dszi56gBoAldCG3NE3OsarTJ/TtGp1jRkK6nPFlfvydhK0E5HtR4xuKYVJW
nK93oBWB4VYFoIhz6MwSq90DsjAwnW3+d45J5QOeJ8ecB1mzDUtMY0hwJ1lQhkWG
Y4I+yNxQPhJ3Rlp0SW3Fa7Cxaaf6wbyMxQ==
-----END CERTIFICATE-----
